target datalayout = "e-m:e-p270:32:32-p271:32:32-p272:64:64-i64:64-i128:128-f80:128-n8:16:32:64-S128"
target triple = "x86_64-pc-linux-gnu"

%"class.tbb::detail::r1::thread_data" = type { %"struct.tbb::detail::d1::intrusive_list_node", i16, i8, i8, ptr, ptr, ptr, ptr, %"class.tbb::detail::r1::mail_inbox", %"class.tbb::detail::r1::FastRandom", ptr, ptr, ptr, i32, ptr, %"class.tbb::detail::d1::task_group_context" }
%"struct.tbb::detail::d1::intrusive_list_node" = type { ptr, ptr }
%"class.tbb::detail::r1::mail_inbox" = type { ptr }
%"class.tbb::detail::r1::FastRandom" = type { i32, i32 }
%"class.tbb::detail::d1::task_group_context" = type { i64, %"struct.std::atomic.4", i8, %"struct.tbb::detail::d1::task_group_context::context_traits", %"struct.std::atomic.6", %"struct.std::atomic.8", %union.anon, ptr, %"struct.tbb::detail::d1::intrusive_list_node", %"struct.std::atomic.9", ptr, i64, [56 x i8] }
%"struct.std::atomic.4" = type { %"struct.std::__atomic_base.5" }
%"struct.std::__atomic_base.5" = type { i32 }
%"struct.tbb::detail::d1::task_group_context::context_traits" = type { i8 }
%"struct.std::atomic.6" = type { %"struct.std::__atomic_base.7" }
%"struct.std::__atomic_base.7" = type { i8 }
%"struct.std::atomic.8" = type { i8 }
%union.anon = type { ptr }
%"struct.std::atomic.9" = type { %"struct.std::__atomic_base.10" }
%"struct.std::__atomic_base.10" = type { ptr }
%"struct.tbb::detail::r1::arena_base" = type { %"struct.tbb::detail::d0::padded.11", %"struct.std::atomic.4", %"struct.std::atomic.4", %"struct.std::atomic.4", [4 x i8], %"class.tbb::detail::r1::task_stream", %"class.tbb::detail::r1::task_stream", %"class.tbb::detail::r1::task_stream.15", i32, i32, %"struct.std::atomic", %"class.tbb::detail::r1::atomic_flag", %"class.tbb::detail::r1::observer_list", ptr, ptr, ptr, %"class.tbb::detail::r1::concurrent_monitor", %"class.tbb::detail::r1::arena_co_cache", %"class.tbb::detail::r1::atomic_flag", i32, i32, i32, i32, %"class.tbb::detail::r1::threading_control_client" }
%"struct.tbb::detail::d0::padded.11" = type { %"struct.tbb::detail::d0::padded_base.12" }
%"struct.tbb::detail::d0::padded_base.12" = type { %"struct.tbb::detail::d1::intrusive_list_node", [112 x i8] }
%"class.tbb::detail::r1::task_stream" = type <{ %"struct.std::atomic.13", ptr, i32, [4 x i8] }>
%"struct.std::atomic.13" = type { %"struct.std::__atomic_base.14" }
%"struct.std::__atomic_base.14" = type { i64 }
%"class.tbb::detail::r1::task_stream.15" = type <{ %"struct.std::atomic.13", ptr, i32, [4 x i8] }>
%"struct.std::atomic" = type { %"struct.std::__atomic_base" }
%"struct.std::__atomic_base" = type { i8 }
%"class.tbb::detail::r1::observer_list" = type { %"struct.std::atomic.18", %"struct.std::atomic.18", %"class.tbb::detail::d0::aligned_space", ptr }
%"struct.std::atomic.18" = type { %"struct.std::__atomic_base.19" }
%"struct.std::__atomic_base.19" = type { ptr }
%"class.tbb::detail::d0::aligned_space" = type { [8 x i8] }
%"class.tbb::detail::r1::concurrent_monitor" = type { %"class.tbb::detail::r1::concurrent_monitor_base.base", [4 x i8] }
%"class.tbb::detail::r1::concurrent_monitor_base.base" = type <{ %"class.tbb::detail::r1::concurrent_monitor_mutex", %"class.tbb::detail::r1::circular_doubly_linked_list_with_sentinel", %"struct.std::atomic.4" }>
%"class.tbb::detail::r1::concurrent_monitor_mutex" = type { %"struct.std::atomic.0", %"struct.std::atomic.0" }
%"struct.std::atomic.0" = type { %"struct.std::__atomic_base.1" }
%"struct.std::__atomic_base.1" = type { i32 }
%"class.tbb::detail::r1::circular_doubly_linked_list_with_sentinel" = type { %"struct.std::atomic.13", %"struct.tbb::detail::r1::circular_doubly_linked_list_with_sentinel::base_node" }
%"struct.tbb::detail::r1::circular_doubly_linked_list_with_sentinel::base_node" = type { ptr, ptr }
%"class.tbb::detail::r1::arena_co_cache" = type <{ ptr, i32, i32, %"class.tbb::detail::d1::spin_mutex", [7 x i8] }>
%"class.tbb::detail::d1::spin_mutex" = type { %"struct.std::atomic" }
%"class.tbb::detail::r1::atomic_flag" = type { %"struct.std::atomic.13" }
%"class.tbb::detail::r1::threading_control_client" = type { ptr, ptr }
%"class.tbb::detail::r1::arena" = type { %"struct.tbb::detail::d0::padded", [1 x %"class.tbb::detail::r1::arena_slot"] }
%"struct.tbb::detail::d0::padded" = type { %"struct.tbb::detail::d0::padded_base" }
%"struct.tbb::detail::d0::padded_base" = type { %"struct.tbb::detail::r1::arena_base", [112 x i8] }
%"class.tbb::detail::r1::arena_slot" = type { %"struct.tbb::detail::r1::arena_slot_shared_state.base", [104 x i8], %"struct.tbb::detail::r1::arena_slot_private_state.base", ptr, [80 x i8] }
%"struct.tbb::detail::r1::arena_slot_shared_state.base" = type { %"struct.std::atomic", %"struct.std::atomic.20", %"struct.std::atomic.13" }
%"struct.std::atomic.20" = type { %"struct.std::__atomic_base.21" }
%"struct.std::__atomic_base.21" = type { ptr }
%"struct.tbb::detail::r1::arena_slot_private_state.base" = type { i32, i32, i32, %"struct.std::atomic.13", i64, ptr }
%"struct.tbb::detail::r1::arena_slot_shared_state" = type { %"struct.std::atomic", %"struct.std::atomic.20", %"struct.std::atomic.13", [104 x i8] }

; Function Attrs: mustprogress nounwind sspstrong uwtable
define linkonce_odr noundef i32 @_ZStanSt12memory_orderSt23__memory_order_modifier(i32 noundef %0, i32 noundef %1) #1 comdat {
  %3 = alloca i32, align 4
  %4 = alloca i32, align 4
  store i32 %0, ptr %3, align 4, !tbaa !102
  store i32 %1, ptr %4, align 4, !tbaa !334
  %5 = load i32, ptr %3, align 4, !tbaa !102
  %6 = load i32, ptr %4, align 4, !tbaa !334
  %7 = and i32 %5, %6
  ret i32 %7
}

; Function Attrs: alwaysinline mustprogress nounwind sspstrong uwtable
define linkonce_odr noundef zeroext i1 @_ZNKSt13__atomic_baseIbE4loadESt12memory_order(ptr noundef nonnull align 1 dereferenceable(1) %0, i32 noundef %1) #5 comdat align 2 {
  %3 = alloca ptr, align 8
  %4 = alloca i32, align 4
  %5 = alloca i32, align 4
  %6 = alloca i8, align 1
  store ptr %0, ptr %3, align 8, !tbaa !324
  store i32 %1, ptr %4, align 4, !tbaa !102
  %7 = load ptr, ptr %3, align 8
  call void @llvm.lifetime.start.p0(i64 4, ptr %5) #12
  %8 = load i32, ptr %4, align 4, !tbaa !102
  %9 = call noundef i32 @_ZStanSt12memory_orderSt23__memory_order_modifier(i32 noundef %8, i32 noundef 65535)
  store i32 %9, ptr %5, align 4, !tbaa !102
  br label %10

10:                                               ; preds = %2
  br label %11

11:                                               ; preds = %10
  br label %12

12:                                               ; preds = %11
  br label %13

13:                                               ; preds = %12
  br label %14

14:                                               ; preds = %13
  br label %15

15:                                               ; preds = %14
  %16 = getelementptr inbounds nuw %"struct.std::__atomic_base", ptr %7, i32 0, i32 0
  %17 = load i32, ptr %4, align 4, !tbaa !102
  switch i32 %17, label %18 [
    i32 1, label %20
    i32 2, label %20
    i32 5, label %22
  ]

18:                                               ; preds = %15
  %19 = load atomic i8, ptr %16 monotonic, align 1
  store i8 %19, ptr %6, align 1
  br label %24

20:                                               ; preds = %15, %15
  %21 = load atomic i8, ptr %16 acquire, align 1
  store i8 %21, ptr %6, align 1
  br label %24

22:                                               ; preds = %15
  %23 = load atomic i8, ptr %16 seq_cst, align 1
  store i8 %23, ptr %6, align 1
  br label %24

24:                                               ; preds = %22, %20, %18
  %25 = load i8, ptr %6, align 1, !tbaa !91, !range !92, !noundef !93
  %26 = trunc i8 %25 to i1
  call void @llvm.lifetime.end.p0(i64 4, ptr %5) #12
  ret i1 %26
}

; Function Attrs: alwaysinline mustprogress nounwind sspstrong uwtable
define linkonce_odr noundef zeroext i1 @_ZNSt13__atomic_baseIbE8exchangeEbSt12memory_order(ptr noundef nonnull align 1 dereferenceable(1) %0, i1 noundef zeroext %1, i32 noundef %2) #5 comdat align 2 {
  %4 = alloca ptr, align 8
  %5 = alloca i8, align 1
  %6 = alloca i32, align 4
  %7 = alloca i8, align 1
  %8 = alloca i8, align 1
  store ptr %0, ptr %4, align 8, !tbaa !324
  %9 = zext i1 %1 to i8
  store i8 %9, ptr %5, align 1, !tbaa !91
  store i32 %2, ptr %6, align 4, !tbaa !102
  %10 = load ptr, ptr %4, align 8
  %11 = getelementptr inbounds nuw %"struct.std::__atomic_base", ptr %10, i32 0, i32 0
  %12 = load i32, ptr %6, align 4, !tbaa !102
  %13 = load i8, ptr %5, align 1, !tbaa !91, !range !92, !noundef !93
  %14 = trunc i8 %13 to i1
  %15 = zext i1 %14 to i8
  store i8 %15, ptr %7, align 1, !tbaa !91
  switch i32 %12, label %16 [
    i32 1, label %19
    i32 2, label %19
    i32 3, label %22
    i32 4, label %25
    i32 5, label %28
  ]

16:                                               ; preds = %3
  %17 = load i8, ptr %7, align 1
  %18 = atomicrmw xchg ptr %11, i8 %17 monotonic, align 1
  store i8 %18, ptr %8, align 1
  br label %31

19:                                               ; preds = %3, %3
  %20 = load i8, ptr %7, align 1
  %21 = atomicrmw xchg ptr %11, i8 %20 acquire, align 1
  store i8 %21, ptr %8, align 1
  br label %31

22:                                               ; preds = %3
  %23 = load i8, ptr %7, align 1
  %24 = atomicrmw xchg ptr %11, i8 %23 release, align 1
  store i8 %24, ptr %8, align 1
  br label %31

25:                                               ; preds = %3
  %26 = load i8, ptr %7, align 1
  %27 = atomicrmw xchg ptr %11, i8 %26 acq_rel, align 1
  store i8 %27, ptr %8, align 1
  br label %31

28:                                               ; preds = %3
  %29 = load i8, ptr %7, align 1
  %30 = atomicrmw xchg ptr %11, i8 %29 seq_cst, align 1
  store i8 %30, ptr %8, align 1
  br label %31

31:                                               ; preds = %28, %25, %22, %19, %16
  %32 = load i8, ptr %8, align 1, !tbaa !91, !range !92, !noundef !93
  %33 = trunc i8 %32 to i1
  ret i1 %33
}

; Function Attrs: mustprogress nounwind sspstrong uwtable
define linkonce_odr noundef zeroext i1 @_ZNKSt6atomicIbE4loadESt12memory_order(ptr noundef nonnull align 1 dereferenceable(1) %0, i32 noundef %1) #1 comdat align 2 {
  %3 = alloca ptr, align 8
  %4 = alloca i32, align 4
  store ptr %0, ptr %3, align 8, !tbaa !185
  store i32 %1, ptr %4, align 4, !tbaa !102
  %5 = load ptr, ptr %3, align 8
  %6 = getelementptr inbounds nuw %"struct.std::atomic", ptr %5, i32 0, i32 0
  %7 = load i32, ptr %4, align 4, !tbaa !102
  %8 = call noundef zeroext i1 @_ZNKSt13__atomic_baseIbE4loadESt12memory_order(ptr noundef nonnull align 1 dereferenceable(1) %6, i32 noundef %7) #12
  ret i1 %8
}

; Function Attrs: mustprogress nounwind sspstrong uwtable
define linkonce_odr noundef zeroext i1 @_ZNSt6atomicIbE8exchangeEbSt12memory_order(ptr noundef nonnull align 1 dereferenceable(1) %0, i1 noundef zeroext %1, i32 noundef %2) #1 comdat align 2 {
  %4 = alloca ptr, align 8
  %5 = alloca i8, align 1
  %6 = alloca i32, align 4
  store ptr %0, ptr %4, align 8, !tbaa !185
  %7 = zext i1 %1 to i8
  store i8 %7, ptr %5, align 1, !tbaa !91
  store i32 %2, ptr %6, align 4, !tbaa !102
  %8 = load ptr, ptr %4, align 8
  %9 = getelementptr inbounds nuw %"struct.std::atomic", ptr %8, i32 0, i32 0
  %10 = load i8, ptr %5, align 1, !tbaa !91, !range !92, !noundef !93
  %11 = trunc i8 %10 to i1
  %12 = load i32, ptr %6, align 4, !tbaa !102
  %13 = call noundef zeroext i1 @_ZNSt13__atomic_baseIbE8exchangeEbSt12memory_order(ptr noundef nonnull align 1 dereferenceable(1) %9, i1 noundef zeroext %11, i32 noundef %12) #12
  ret i1 %13
}

; Function Attrs: mustprogress nounwind sspstrong uwtable
define linkonce_odr noundef zeroext i1 @_ZNK3tbb6detail2r110arena_slot11is_occupiedEv(ptr noundef nonnull align 128 dereferenceable(176) %0) #1 comdat align 2 {
  %2 = alloca ptr, align 8
  store ptr %0, ptr %2, align 8, !tbaa !128
  %3 = load ptr, ptr %2, align 8
  %4 = getelementptr inbounds nuw %"struct.tbb::detail::r1::arena_slot_shared_state", ptr %3, i32 0, i32 0
  %5 = call noundef zeroext i1 @_ZNKSt6atomicIbE4loadESt12memory_order(ptr noundef nonnull align 1 dereferenceable(1) %4, i32 noundef 0) #12
  ret i1 %5
}

; Function Attrs: mustprogress nounwind sspstrong uwtable
define linkonce_odr noundef zeroext i16 @_ZN3tbb6detail2r110FastRandom3getERj(ptr noundef nonnull align 4 dereferenceable(8) %0, ptr noundef nonnull align 4 dereferenceable(4) %1) #1 comdat align 2 {
  %3 = alloca ptr, align 8
  %4 = alloca ptr, align 8
  %5 = alloca i16, align 2
  store ptr %0, ptr %3, align 8, !tbaa !126
  store ptr %1, ptr %4, align 8, !tbaa !223
  %6 = load ptr, ptr %3, align 8
  call void @llvm.lifetime.start.p0(i64 2, ptr %5) #12
  %7 = load ptr, ptr %4, align 8, !tbaa !223
  %8 = load i32, ptr %7, align 4, !tbaa !79
  %9 = lshr i32 %8, 16
  %10 = trunc i32 %9 to i16
  store i16 %10, ptr %5, align 2, !tbaa !162
  %11 = load ptr, ptr %4, align 8, !tbaa !223
  %12 = load i32, ptr %11, align 4, !tbaa !79
  %13 = mul i32 %12, -1640531535
  %14 = getelementptr inbounds nuw %"class.tbb::detail::r1::FastRandom", ptr %6, i32 0, i32 1
  %15 = load i32, ptr %14, align 4, !tbaa !352
  %16 = add i32 %13, %15
  %17 = load ptr, ptr %4, align 8, !tbaa !223
  store i32 %16, ptr %17, align 4, !tbaa !79
  %18 = load i16, ptr %5, align 2, !tbaa !162
  call void @llvm.lifetime.end.p0(i64 2, ptr %5) #12
  ret i16 %18
}

; Function Attrs: mustprogress sspstrong uwtable
define linkonce_odr noundef zeroext i1 @_ZN3tbb6detail2r110arena_slot10try_occupyEv(ptr noundef nonnull align 128 dereferenceable(176) %0) #2 comdat align 2 {
  %2 = alloca ptr, align 8
  store ptr %0, ptr %2, align 8, !tbaa !128
  %3 = load ptr, ptr %2, align 8
  %4 = call noundef zeroext i1 @_ZNK3tbb6detail2r110arena_slot11is_occupiedEv(ptr noundef nonnull align 128 dereferenceable(176) %3)
  br i1 %4, label %10, label %5

5:                                                ; preds = %1
  %6 = getelementptr inbounds nuw %"struct.tbb::detail::r1::arena_slot_shared_state", ptr %3, i32 0, i32 0
  %7 = call noundef zeroext i1 @_ZNSt6atomicIbE8exchangeEbSt12memory_order(ptr noundef nonnull align 1 dereferenceable(1) %6, i1 noundef zeroext true, i32 noundef 5) #12
  %8 = zext i1 %7 to i32
  %9 = icmp eq i32 %8, 0
  br label %10

10:                                               ; preds = %5, %1
  %11 = phi i1 [ false, %1 ], [ %9, %5 ]
  ret i1 %11
}

; Function Attrs: mustprogress sspstrong uwtable
define linkonce_odr noundef zeroext i16 @_ZN3tbb6detail2r110FastRandom3getEv(ptr noundef nonnull align 4 dereferenceable(8) %0) #2 comdat align 2 {
  %2 = alloca ptr, align 8
  store ptr %0, ptr %2, align 8, !tbaa !126
  %3 = load ptr, ptr %2, align 8
  %4 = getelementptr inbounds nuw %"class.tbb::detail::r1::FastRandom", ptr %3, i32 0, i32 0
  %5 = call noundef zeroext i16 @_ZN3tbb6detail2r110FastRandom3getERj(ptr noundef nonnull align 4 dereferenceable(8) %3, ptr noundef nonnull align 4 dereferenceable(4) %4)
  ret i16 %5
}

; Function Attrs: mustprogress sspstrong uwtable
define noundef i64 @_ZN3tbb6detail2r15arena25occupy_free_slot_in_rangeERNS1_11thread_dataEmm(ptr noundef nonnull align 128 dereferenceable(768) %0, ptr noundef nonnull align 8 dereferenceable(240) %1, i64 noundef %2, i64 noundef %3) #2 align 2 {
  %5 = alloca i64, align 8
  %6 = alloca ptr, align 8
  %7 = alloca ptr, align 8
  %8 = alloca i64, align 8
  %9 = alloca i64, align 8
  %10 = alloca i64, align 8
  %11 = alloca i64, align 8
  %12 = alloca i32, align 4
  %13 = alloca i64, align 8
  store ptr %0, ptr %6, align 8, !tbaa !43
  store ptr %1, ptr %7, align 8, !tbaa !3
  store i64 %2, ptr %8, align 8, !tbaa !99
  store i64 %3, ptr %9, align 8, !tbaa !99
  %14 = load ptr, ptr %6, align 8
  %15 = load i64, ptr %8, align 8, !tbaa !99
  %16 = load i64, ptr %9, align 8, !tbaa !99
  %17 = icmp uge i64 %15, %16
  br i1 %17, label %18, label %19

18:                                               ; preds = %4
  store i64 -1, ptr %5, align 8
  br label %84

19:                                               ; preds = %4
  call void @llvm.lifetime.start.p0(i64 8, ptr %10) #12
  %20 = load ptr, ptr %7, align 8, !tbaa !3
  %21 = getelementptr inbounds nuw %"class.tbb::detail::r1::thread_data", ptr %20, i32 0, i32 1
  %22 = load i16, ptr %21, align 8, !tbaa !123
  %23 = zext i16 %22 to i64
  store i64 %23, ptr %10, align 8, !tbaa !99
  %24 = load i64, ptr %10, align 8, !tbaa !99
  %25 = load i64, ptr %8, align 8, !tbaa !99
  %26 = icmp ult i64 %24, %25
  br i1 %26, label %31, label %27

27:                                               ; preds = %19
  %28 = load i64, ptr %10, align 8, !tbaa !99
  %29 = load i64, ptr %9, align 8, !tbaa !99
  %30 = icmp uge i64 %28, %29
  br i1 %30, label %31, label %42

31:                                               ; preds = %27, %19
  %32 = load ptr, ptr %7, align 8, !tbaa !3
  %33 = getelementptr inbounds nuw %"class.tbb::detail::r1::thread_data", ptr %32, i32 0, i32 9
  %34 = call noundef zeroext i16 @_ZN3tbb6detail2r110FastRandom3getEv(ptr noundef nonnull align 4 dereferenceable(8) %33)
  %35 = zext i16 %34 to i64
  %36 = load i64, ptr %9, align 8, !tbaa !99
  %37 = load i64, ptr %8, align 8, !tbaa !99
  %38 = sub i64 %36, %37
  %39 = urem i64 %35, %38
  %40 = load i64, ptr %8, align 8, !tbaa !99
  %41 = add i64 %39, %40
  store i64 %41, ptr %10, align 8, !tbaa !99
  br label %42

42:                                               ; preds = %31, %27
  call void @llvm.lifetime.start.p0(i64 8, ptr %11) #12
  %43 = load i64, ptr %10, align 8, !tbaa !99
  store i64 %43, ptr %11, align 8, !tbaa !99
  br label %44

44:                                               ; preds = %57, %42
  %45 = load i64, ptr %11, align 8, !tbaa !99
  %46 = load i64, ptr %9, align 8, !tbaa !99
  %47 = icmp ult i64 %45, %46
  br i1 %47, label %49, label %48

48:                                               ; preds = %44
  store i32 2, ptr %12, align 4
  br label %60

49:                                               ; preds = %44
  %50 = getelementptr inbounds nuw %"class.tbb::detail::r1::arena", ptr %14, i32 0, i32 1
  %51 = load i64, ptr %11, align 8, !tbaa !99
  %52 = getelementptr inbounds nuw [1 x %"class.tbb::detail::r1::arena_slot"], ptr %50, i64 0, i64 %51
  %53 = call noundef zeroext i1 @_ZN3tbb6detail2r110arena_slot10try_occupyEv(ptr noundef nonnull align 128 dereferenceable(176) %52)
  br i1 %53, label %54, label %56

54:                                               ; preds = %49
  %55 = load i64, ptr %11, align 8, !tbaa !99
  store i64 %55, ptr %5, align 8
  store i32 1, ptr %12, align 4
  br label %60

56:                                               ; preds = %49
  br label %57

57:                                               ; preds = %56
  %58 = load i64, ptr %11, align 8, !tbaa !99
  %59 = add i64 %58, 1
  store i64 %59, ptr %11, align 8, !tbaa !99
  br label %44, !llvm.loop !124

60:                                               ; preds = %54, %48
  call void @llvm.lifetime.end.p0(i64 8, ptr %11) #12
  %61 = load i32, ptr %12, align 4
  switch i32 %61, label %83 [
    i32 2, label %62
  ]

62:                                               ; preds = %60
  call void @llvm.lifetime.start.p0(i64 8, ptr %13) #12
  %63 = load i64, ptr %8, align 8, !tbaa !99
  store i64 %63, ptr %13, align 8, !tbaa !99
  br label %64

64:                                               ; preds = %77, %62
  %65 = load i64, ptr %13, align 8, !tbaa !99
  %66 = load i64, ptr %10, align 8, !tbaa !99
  %67 = icmp ult i64 %65, %66
  br i1 %67, label %69, label %68

68:                                               ; preds = %64
  store i32 5, ptr %12, align 4
  br label %80

69:                                               ; preds = %64
  %70 = getelementptr inbounds nuw %"class.tbb::detail::r1::arena", ptr %14, i32 0, i32 1
  %71 = load i64, ptr %13, align 8, !tbaa !99
  %72 = getelementptr inbounds nuw [1 x %"class.tbb::detail::r1::arena_slot"], ptr %70, i64 0, i64 %71
  %73 = call noundef zeroext i1 @_ZN3tbb6detail2r110arena_slot10try_occupyEv(ptr noundef nonnull align 128 dereferenceable(176) %72)
  br i1 %73, label %74, label %76

74:                                               ; preds = %69
  %75 = load i64, ptr %13, align 8, !tbaa !99
  store i64 %75, ptr %5, align 8
  store i32 1, ptr %12, align 4
  br label %80

76:                                               ; preds = %69
  br label %77

77:                                               ; preds = %76
  %78 = load i64, ptr %13, align 8, !tbaa !99
  %79 = add i64 %78, 1
  store i64 %79, ptr %13, align 8, !tbaa !99
  br label %64, !llvm.loop !125

80:                                               ; preds = %74, %68
  call void @llvm.lifetime.end.p0(i64 8, ptr %13) #12
  %81 = load i32, ptr %12, align 4
  switch i32 %81, label %83 [
    i32 5, label %82
  ]

82:                                               ; preds = %80
  store i64 -1, ptr %5, align 8
  store i32 1, ptr %12, align 4
  br label %83

83:                                               ; preds = %82, %80, %60
  call void @llvm.lifetime.end.p0(i64 8, ptr %10) #12
  br label %84

84:                                               ; preds = %83, %18
  %85 = load i64, ptr %5, align 8
  ret i64 %85
}