; Function Attrs: mustprogress nofree norecurse nounwind sspstrong memory(argmem: readwrite) uwtable
define noundef i64 @_ZN3tbb6detail2r15arena25occupy_free_slot_in_rangeERNS1_11thread_dataEmm(ptr noundef nonnull align 128 captures(none) dereferenceable(768) %0, ptr noundef nonnull align 8 captures(none) dereferenceable(240) %1, i64 noundef %2, i64 noundef %3) local_unnamed_addr #4 align 2 {
  %.not = icmp ult i64 %2, %3
  br i1 %.not, label %5, label %.loopexit

5:                                                ; preds = %4
  %6 = getelementptr inbounds nuw i8, ptr %1, i64 16
  %7 = load i16, ptr %6, align 8, !tbaa !86
  %8 = zext i16 %7 to i64
  %9 = icmp ule i64 %2, %8
  %.not35 = icmp ugt i64 %3, %8
  %or.cond = and i1 %9, %.not35
  br i1 %or.cond, label %22, label %10

10:                                               ; preds = %5
  %11 = getelementptr inbounds nuw i8, ptr %1, i64 64
  %12 = load i32, ptr %11, align 8, !tbaa !107
  %13 = lshr i32 %12, 16
  %14 = zext nneg i32 %13 to i64
  %15 = mul i32 %12, -1640531535
  %16 = getelementptr inbounds nuw i8, ptr %1, i64 68
  %17 = load i32, ptr %16, align 4, !tbaa !108
  %18 = add i32 %15, %17
  store i32 %18, ptr %11, align 8, !tbaa !107
  %19 = sub i64 %3, %2
  %20 = urem i64 %14, %19
  %21 = add i64 %20, %2
  br label %22

22:                                               ; preds = %5, %10
  %.029 = phi i64 [ %21, %10 ], [ %8, %5 ]
  %.not3641 = icmp ult i64 %.029, %3
  br i1 %.not3641, label %.lr.ph, label %.critedge.preheader

.lr.ph:                                           ; preds = %22
  %23 = getelementptr inbounds nuw i8, ptr %0, i64 512
  br label %25

.critedge.preheader:                              ; preds = %_ZN3tbb6detail2r110arena_slot10try_occupyEv.exit.thread, %22
  %.not3743 = icmp ult i64 %2, %.029
  br i1 %.not3743, label %.lr.ph45, label %.loopexit

.lr.ph45:                                         ; preds = %.critedge.preheader
  %24 = getelementptr inbounds nuw i8, ptr %0, i64 512
  br label %32

25:                                               ; preds = %.lr.ph, %_ZN3tbb6detail2r110arena_slot10try_occupyEv.exit.thread
  %.02842 = phi i64 [ %.029, %.lr.ph ], [ %31, %_ZN3tbb6detail2r110arena_slot10try_occupyEv.exit.thread ]
  %26 = getelementptr inbounds nuw [1 x %"class.tbb::detail::r1::arena_slot"], ptr %23, i64 0, i64 %.02842
  %27 = load atomic i8, ptr %26 monotonic, align 128
  %28 = trunc i8 %27 to i1
  br i1 %28, label %_ZN3tbb6detail2r110arena_slot10try_occupyEv.exit.thread, label %_ZN3tbb6detail2r110arena_slot10try_occupyEv.exit

_ZN3tbb6detail2r110arena_slot10try_occupyEv.exit: ; preds = %25
  %29 = atomicrmw xchg ptr %26, i8 1 seq_cst, align 1
  %30 = trunc i8 %29 to i1
  br i1 %30, label %_ZN3tbb6detail2r110arena_slot10try_occupyEv.exit.thread, label %.loopexit

_ZN3tbb6detail2r110arena_slot10try_occupyEv.exit.thread: ; preds = %25, %_ZN3tbb6detail2r110arena_slot10try_occupyEv.exit
  %31 = add i64 %.02842, 1
  %exitcond.not = icmp eq i64 %31, %3
  br i1 %exitcond.not, label %.critedge.preheader, label %25, !llvm.loop !109

32:                                               ; preds = %.lr.ph45, %_ZN3tbb6detail2r110arena_slot10try_occupyEv.exit38.thread
  %.044 = phi i64 [ %2, %.lr.ph45 ], [ %38, %_ZN3tbb6detail2r110arena_slot10try_occupyEv.exit38.thread ]
  %33 = getelementptr inbounds nuw [1 x %"class.tbb::detail::r1::arena_slot"], ptr %24, i64 0, i64 %.044
  %34 = load atomic i8, ptr %33 monotonic, align 128
  %35 = trunc i8 %34 to i1
  br i1 %35, label %_ZN3tbb6detail2r110arena_slot10try_occupyEv.exit38.thread, label %_ZN3tbb6detail2r110arena_slot10try_occupyEv.exit38

_ZN3tbb6detail2r110arena_slot10try_occupyEv.exit38: ; preds = %32
  %36 = atomicrmw xchg ptr %33, i8 1 seq_cst, align 1
  %37 = trunc i8 %36 to i1
  br i1 %37, label %_ZN3tbb6detail2r110arena_slot10try_occupyEv.exit38.thread, label %.loopexit

_ZN3tbb6detail2r110arena_slot10try_occupyEv.exit38.thread: ; preds = %32, %_ZN3tbb6detail2r110arena_slot10try_occupyEv.exit38
  %38 = add i64 %.044, 1
  %exitcond49.not = icmp eq i64 %38, %.029
  br i1 %exitcond49.not, label %.loopexit, label %32, !llvm.loop !110

.loopexit:                                        ; preds = %_ZN3tbb6detail2r110arena_slot10try_occupyEv.exit, %_ZN3tbb6detail2r110arena_slot10try_occupyEv.exit38, %_ZN3tbb6detail2r110arena_slot10try_occupyEv.exit38.thread, %.critedge.preheader, %4
  %.030 = phi i64 [ -1, %4 ], [ -1, %.critedge.preheader ], [ %.044, %_ZN3tbb6detail2r110arena_slot10try_occupyEv.exit38 ], [ -1, %_ZN3tbb6detail2r110arena_slot10try_occupyEv.exit38.thread ], [ %.02842, %_ZN3tbb6detail2r110arena_slot10try_occupyEv.exit ]
  ret i64 %.030
}